; Function Attrs: mustprogress uwtable
define hidden void @_ZN7Imf_3_214DeepImageLevelC2ERNS_9DeepImageEiiRKN9Imath_3_23BoxINS3_4Vec2IiEEEE(ptr noundef nonnull align 8 dereferenceable(192) %this, ptr noundef nonnull align 8 dereferenceable(104) %image, i32 noundef %xLevelNumber, i32 noundef %yLevelNumber, ptr noundef nonnull align 4 dereferenceable(16) %dataWindow) unnamed_addr #3 align 2 personality ptr @__gxx_personality_v0 {
entry:
  tail call void @_ZN7Imf_3_210ImageLevelC2ERNS_5ImageEii(ptr noundef nonnull align 8 dereferenceable(40) %this, ptr noundef nonnull align 8 dereferenceable(104) %image, i32 noundef %xLevelNumber, i32 noundef %yLevelNumber)
  store ptr getelementptr inbounds ({ [11 x ptr] }, ptr @_ZTVN7Imf_3_214DeepImageLevelE, i64 0, i32 0, i64 2), ptr %this, align 8
  %0 = getelementptr inbounds i8, ptr %this, i64 48
  store i32 0, ptr %0, align 8
  %_M_parent.i.i.i.i.i = getelementptr inbounds i8, ptr %this, i64 56
  store ptr null, ptr %_M_parent.i.i.i.i.i, align 8
  %_M_left.i.i.i.i.i = getelementptr inbounds i8, ptr %this, i64 64
  store ptr %0, ptr %_M_left.i.i.i.i.i, align 8
  %_M_right.i.i.i.i.i = getelementptr inbounds i8, ptr %this, i64 72
  store ptr %0, ptr %_M_right.i.i.i.i.i, align 8
  %_M_node_count.i.i.i.i.i = getelementptr inbounds i8, ptr %this, i64 80
  store i64 0, ptr %_M_node_count.i.i.i.i.i, align 8
  %_sampleCounts = getelementptr inbounds i8, ptr %this, i64 88
  invoke void @_ZN7Imf_3_218SampleCountChannelC1ERNS_14DeepImageLevelE(ptr noundef nonnull align 8 dereferenceable(104) %_sampleCounts, ptr noundef nonnull align 8 dereferenceable(192) %this)
          to label %invoke.cont unwind label %lpad

invoke.cont:                                      ; preds = %entry
  %vtable = load ptr, ptr %this, align 8
  %vfn = getelementptr inbounds i8, ptr %vtable, i64 16
  %1 = load ptr, ptr %vfn, align 8
  invoke void %1(ptr noundef nonnull align 8 dereferenceable(192) %this, ptr noundef nonnull align 4 dereferenceable(16) %dataWindow)
          to label %invoke.cont3 unwind label %lpad2

invoke.cont3:                                     ; preds = %invoke.cont
  ret void

lpad:                                             ; preds = %entry
  %2 = landingpad { ptr, i32 }
          cleanup
  br label %ehcleanup

lpad2:                                            ; preds = %invoke.cont
  %3 = landingpad { ptr, i32 }
          cleanup
  tail call void @_ZN7Imf_3_218SampleCountChannelD1Ev(ptr noundef nonnull align 8 dereferenceable(104) %_sampleCounts) #13
  br label %ehcleanup

ehcleanup:                                        ; preds = %lpad2, %lpad
  %.pn = phi { ptr, i32 } [ %3, %lpad2 ], [ %2, %lpad ]
  %_channels = getelementptr inbounds i8, ptr %this, i64 40
  tail call void @_ZNSt3mapINSt7__cxx1112basic_stringIcSt11char_traitsIcESaIcEEEPN7Imf_3_216DeepImageChannelESt4lessIS5_ESaISt4pairIKS5_S8_EEED2Ev(ptr noundef nonnull align 8 dereferenceable(48) %_channels) #13
  tail call void @_ZN7Imf_3_210ImageLevelD2Ev(ptr noundef nonnull align 8 dereferenceable(40) %this) #13
  resume { ptr, i32 } %.pn
}